; Function Attrs: mustprogress uwtable
define void @_ZN6icu_776number4impl15DecimalQuantity14ensureCapacityEi(ptr noundef nonnull align 8 captures(none) dereferenceable(66) %0, i32 noundef %1) local_unnamed_addr #1 align 2 {
  %3 = icmp eq i32 %1, 0
  br i1 %3, label %27, label %4

4:                                                ; preds = %2
  %5 = getelementptr inbounds nuw i8, ptr %0, i64 64
  %6 = load i8, ptr %5, align 8, !tbaa !22, !range !24, !noundef !25
  %7 = trunc nuw i8 %6 to i1
  %8 = getelementptr inbounds nuw i8, ptr %0, i64 56
  %9 = load i32, ptr %8, align 8
  br i1 %7, label %14, label %10

10:                                               ; preds = %4
  %11 = sext i32 %1 to i64
  %12 = tail call noalias ptr @uprv_malloc_77(i64 noundef %11) #27
  %13 = getelementptr inbounds nuw i8, ptr %0, i64 48
  store ptr %12, ptr %13, align 8, !tbaa !26
  store i32 %1, ptr %8, align 8, !tbaa !26
  tail call void @llvm.memset.p0.i64(ptr align 1 %12, i8 0, i64 %11, i1 false)
  br label %26

14:                                               ; preds = %4
  %15 = icmp slt i32 %9, %1
  br i1 %15, label %16, label %26

16:                                               ; preds = %14
  %17 = shl nsw i32 %1, 1
  %18 = sext i32 %17 to i64
  %19 = tail call noalias ptr @uprv_malloc_77(i64 noundef %18) #27
  %20 = getelementptr inbounds nuw i8, ptr %0, i64 48
  %21 = load ptr, ptr %20, align 8, !tbaa !26
  %22 = sext i32 %9 to i64
  tail call void @llvm.memcpy.p0.p0.i64(ptr align 1 %19, ptr align 1 %21, i64 %22, i1 false)
  %23 = getelementptr inbounds i8, ptr %19, i64 %22
  %24 = sub nsw i32 %1, %9
  %25 = sext i32 %24 to i64
  tail call void @llvm.memset.p0.i64(ptr align 1 %23, i8 0, i64 %25, i1 false)
  tail call void @uprv_free_77(ptr noundef %21)
  store ptr %19, ptr %20, align 8, !tbaa !26
  store i32 %17, ptr %8, align 8, !tbaa !26
  br label %26

26:                                               ; preds = %14, %16, %10
  store i8 1, ptr %5, align 8, !tbaa !22
  br label %27

27:                                               ; preds = %2, %26
  ret void
}